target datalayout = "e-m:e-p270:32:32-p271:32:32-p272:64:64-i64:64-i128:128-f80:128-n8:16:32:64-S128"
target triple = "x86_64-pc-linux-gnu"

%struct.ParseContext_ = type { %struct.TokenData, i32, %union.SourceSpan, %union.SourceSpan, ptr, %struct.Lexer }
%struct.TokenData = type { ptr, i64, %union.anon.86 }
%union.anon.86 = type { %struct.anon.89 }
%struct.anon.89 = type { %struct.Int128_, i8 }
%struct.Int128_ = type { i64, i64 }
%union.SourceSpan = type { i64 }
%struct.Lexer = type { ptr, ptr, ptr, ptr, i32, i32, ptr, ptr, ptr, %struct.TokenData, %union.SourceSpan, i32, i32 }
%struct.Expr_ = type { ptr, %union.SourceSpan, i16, %union.anon.30 }
%union.anon.30 = type { %struct.ExprAnySwitch }
%struct.ExprAnySwitch = type { i8, %union.anon.32 }
%union.anon.32 = type { %struct.anon.33 }
%struct.anon.33 = type { ptr, %union.SourceSpan, ptr }
%struct.ExprIdentifier = type { %union.anon.50 }
%union.anon.50 = type { %struct.anon.51 }
%struct.anon.51 = type { ptr, ptr, i8 }

@poisoned_expr = external global ptr, align 8
@.str.32 = private unnamed_addr constant [39 x i8] c"Expected a type, function or constant.\00", align 1
@kw_return = external global ptr, align 8

; Function Attrs: nounwind uwtable
define internal ptr @parse_identifier(ptr noundef %0, ptr noundef %1) #0 {
  %3 = alloca ptr, align 8
  %4 = alloca ptr, align 8
  %5 = alloca ptr, align 8
  %6 = alloca i32, align 4
  %7 = alloca ptr, align 8
  %8 = alloca ptr, align 8
  %9 = alloca ptr, align 8
  %10 = alloca ptr, align 8
  %11 = alloca ptr, align 8
  store ptr %0, ptr %8, align 8
  store ptr %1, ptr %9, align 8
  %12 = load ptr, ptr %8, align 8
  store ptr %12, ptr %3, align 8
  %13 = load ptr, ptr %3, align 8
  %14 = getelementptr inbounds %struct.TokenData, ptr %13, i32 0, i32 2
  %15 = load ptr, ptr %14, align 8
  %16 = load ptr, ptr @kw_return, align 8
  %17 = icmp eq ptr %15, %16
  br i1 %17, label %18, label %26

18:                                               ; preds = %2
  %19 = load ptr, ptr %8, align 8
  %20 = getelementptr inbounds %struct.ParseContext_, ptr %19, i32 0, i32 2
  %21 = getelementptr inbounds %union.SourceSpan, ptr %20, i32 0, i32 0
  %22 = load i64, ptr %21, align 8
  %23 = call ptr @expr_new(i32 noundef 46, i64 %22)
  store ptr %23, ptr %10, align 8
  %24 = load ptr, ptr %8, align 8
  call void @advance(ptr noundef %24)
  %25 = load ptr, ptr %10, align 8
  store ptr %25, ptr %7, align 8
  br label %53

26:                                               ; preds = %2
  %27 = load ptr, ptr %8, align 8
  %28 = getelementptr inbounds %struct.ParseContext_, ptr %27, i32 0, i32 2
  %29 = getelementptr inbounds %union.SourceSpan, ptr %28, i32 0, i32 0
  %30 = load i64, ptr %29, align 8
  %31 = call ptr @expr_new(i32 noundef 34, i64 %30)
  store ptr %31, ptr %11, align 8
  %32 = load ptr, ptr %8, align 8
  store ptr %32, ptr %4, align 8
  %33 = load ptr, ptr %4, align 8
  %34 = getelementptr inbounds %struct.TokenData, ptr %33, i32 0, i32 2
  %35 = load ptr, ptr %34, align 8
  %36 = load ptr, ptr %11, align 8
  %37 = getelementptr inbounds %struct.Expr_, ptr %36, i32 0, i32 3
  %38 = getelementptr inbounds %struct.ExprIdentifier, ptr %37, i32 0, i32 0
  %39 = getelementptr inbounds %struct.anon.51, ptr %38, i32 0, i32 1
  store ptr %35, ptr %39, align 8
  %40 = load ptr, ptr %8, align 8
  store ptr %40, ptr %5, align 8
  store i32 65, ptr %6, align 4
  %41 = load ptr, ptr %5, align 8
  %42 = getelementptr inbounds %struct.ParseContext_, ptr %41, i32 0, i32 1
  %43 = load i32, ptr %42, align 8
  %44 = load i32, ptr %6, align 4
  %45 = icmp eq i32 %43, %44
  %46 = load ptr, ptr %11, align 8
  %47 = getelementptr inbounds %struct.Expr_, ptr %46, i32 0, i32 3
  %48 = getelementptr inbounds %struct.ExprIdentifier, ptr %47, i32 0, i32 0
  %49 = getelementptr inbounds %struct.anon.51, ptr %48, i32 0, i32 2
  %50 = zext i1 %45 to i8
  store i8 %50, ptr %49, align 8
  %51 = load ptr, ptr %8, align 8
  call void @advance(ptr noundef %51)
  %52 = load ptr, ptr %11, align 8
  store ptr %52, ptr %7, align 8
  br label %53

53:                                               ; preds = %26, %18
  %54 = load ptr, ptr %7, align 8
  ret ptr %54
}

; Function Attrs: nounwind uwtable
define internal ptr @parse_identifier_starting_expression(ptr noundef %0, ptr noundef %1) #0 {
  %3 = alloca ptr, align 8
  %4 = alloca ptr, align 8
  %5 = alloca ptr, align 8
  %6 = alloca ptr, align 8
  %7 = alloca ptr, align 8
  store ptr %0, ptr %4, align 8
  store ptr %1, ptr %5, align 8
  %8 = load ptr, ptr %4, align 8
  %9 = call zeroext i1 @parse_path_prefix(ptr noundef %8, ptr noundef %6)
  br i1 %9, label %12, label %10

10:                                               ; preds = %2
  %11 = load ptr, ptr @poisoned_expr, align 8
  store ptr %11, ptr %3, align 8
  br label %35

12:                                               ; preds = %2
  %13 = load ptr, ptr %4, align 8
  %14 = getelementptr inbounds %struct.ParseContext_, ptr %13, i32 0, i32 1
  %15 = load i32, ptr %14, align 8
  switch i32 %15, label %29 [
    i32 64, label %16
    i32 65, label %16
    i32 73, label %16
    i32 66, label %25
  ]

16:                                               ; preds = %12, %12, %12
  %17 = load ptr, ptr %4, align 8
  %18 = call ptr @parse_identifier(ptr noundef %17, ptr noundef null)
  store ptr %18, ptr %7, align 8
  %19 = load ptr, ptr %6, align 8
  %20 = load ptr, ptr %7, align 8
  %21 = getelementptr inbounds %struct.Expr_, ptr %20, i32 0, i32 3
  %22 = getelementptr inbounds %struct.ExprIdentifier, ptr %21, i32 0, i32 0
  %23 = getelementptr inbounds %struct.anon.51, ptr %22, i32 0, i32 0
  store ptr %19, ptr %23, align 8
  %24 = load ptr, ptr %7, align 8
  store ptr %24, ptr %3, align 8
  br label %35

25:                                               ; preds = %12
  %26 = load ptr, ptr %4, align 8
  %27 = load ptr, ptr %6, align 8
  %28 = call ptr @parse_type_expression_with_path(ptr noundef %26, ptr noundef %27)
  store ptr %28, ptr %3, align 8
  br label %35

29:                                               ; preds = %12
  %30 = load ptr, ptr %4, align 8
  %31 = getelementptr inbounds %struct.ParseContext_, ptr %30, i32 0, i32 2
  %32 = getelementptr inbounds %union.SourceSpan, ptr %31, i32 0, i32 0
  %33 = load i64, ptr %32, align 8
  call void (i64, ptr, ...) @sema_error_at(i64 %33, ptr noundef @.str.32)
  %34 = load ptr, ptr @poisoned_expr, align 8
  store ptr %34, ptr %3, align 8
  br label %35

35:                                               ; preds = %29, %25, %16, %10
  %36 = load ptr, ptr %3, align 8
  ret ptr %36
}