; Function Attrs: nounwind uwtable
define internal ptr @parse_identifier_starting_expression(ptr noundef %0, ptr nocapture readnone %1) #1 {
  %3 = alloca ptr, align 8
  %4 = call zeroext i1 @parse_path_prefix(ptr noundef %0, ptr noundef nonnull %3) #8
  br i1 %4, label %7, label %5

5:                                                ; preds = %2
  %6 = load ptr, ptr @poisoned_expr, align 8
  br label %36

7:                                                ; preds = %2
  %8 = getelementptr inbounds i8, ptr %0, i64 40
  %9 = load i32, ptr %8, align 8
  switch i32 %9, label %32 [
    i32 64, label %10
    i32 65, label %10
    i32 73, label %10
    i32 66, label %29
  ]

10:                                               ; preds = %7, %7, %7
  %11 = getelementptr inbounds i8, ptr %0, i64 16
  %12 = load ptr, ptr %11, align 8
  %13 = load ptr, ptr @kw_return, align 8
  %14 = icmp eq ptr %12, %13
  %15 = getelementptr inbounds i8, ptr %0, i64 48
  %16 = load i64, ptr %15, align 8
  br i1 %14, label %17, label %19

17:                                               ; preds = %10
  %18 = call ptr @expr_new(i32 noundef 46, i64 %16) #8
  br label %parse_identifier.exit

19:                                               ; preds = %10
  %20 = call ptr @expr_new(i32 noundef 34, i64 %16) #8
  %21 = load ptr, ptr %11, align 8
  %22 = getelementptr inbounds i8, ptr %20, i64 32
  store ptr %21, ptr %22, align 8
  %23 = load i32, ptr %8, align 8
  %24 = icmp eq i32 %23, 65
  %25 = getelementptr inbounds i8, ptr %20, i64 40
  %26 = zext i1 %24 to i8
  store i8 %26, ptr %25, align 8
  br label %parse_identifier.exit

parse_identifier.exit:                            ; preds = %17, %19
  %.0.i = phi ptr [ %18, %17 ], [ %20, %19 ]
  call void @advance(ptr noundef nonnull %0) #8
  %27 = load ptr, ptr %3, align 8
  %28 = getelementptr inbounds i8, ptr %.0.i, i64 24
  store ptr %27, ptr %28, align 8
  br label %36

29:                                               ; preds = %7
  %30 = load ptr, ptr %3, align 8
  %31 = call ptr @parse_type_expression_with_path(ptr noundef nonnull %0, ptr noundef %30)
  br label %36

32:                                               ; preds = %7
  %33 = getelementptr inbounds i8, ptr %0, i64 48
  %34 = load i64, ptr %33, align 8
  call void (i64, ptr, ...) @sema_error_at(i64 %34, ptr noundef nonnull @.str.32) #8
  %35 = load ptr, ptr @poisoned_expr, align 8
  br label %36

36:                                               ; preds = %32, %29, %parse_identifier.exit, %5
  %.0 = phi ptr [ %35, %32 ], [ %31, %29 ], [ %.0.i, %parse_identifier.exit ], [ %6, %5 ]
  ret ptr %.0
}